ccopy_reg
_reconstructor
p0
(coptirx
FrameOfData
p1
c__builtin__
tuple
p2
(I51226
(dp3
S'Rigid Body 5'
p4
(lp5
(F1.1508668661117554
F1.098239541053772
F0.10011222958564758
tp6
a(F0.9836692810058594
F0.9747974872589111
F0.5553705096244812
tp7
a(F0.9617363214492798
F1.2429890632629395
F0.42251861095428467
tp8
asS'Rigid Body 4'
p9
(lp10
(F0.7005646228790283
F1.30610191822052
F0.21127642691135406
tp11
a(F0.7452319264411926
F1.345742106437683
F0.19363023340702057
tp12
a(F0.6927351951599121
F1.3684792518615723
F0.1546202003955841
tp13
a(F0.7623492479324341
F1.3931422233581543
F0.1581210494041443
tp14
asS'Rigid Body 3'
p15
(lp16
(F1.2028629779815674
F1.1707812547683716
F-2.4108829498291016
tp17
a(F1.1671142578125
F1.102990746498108
F-2.4680120944976807
tp18
a(F1.227584719657898
F1.1144627332687378
F-2.4951395988464355
tp19
a(F1.255805492401123
F1.1461814641952515
F-2.470116138458252
tp20
asS'Rigid Body 2'
p21
(lp22
(F2.0837559700012207
F0.8108670711517334
F-1.356943964958191
tp23
a(F2.064021348953247
F0.775361180305481
F-1.4162287712097168
tp24
a(F2.0967764854431152
F0.7524005174636841
F-1.3560435771942139
tp25
a(F2.1103646755218506
F0.676003634929657
F-1.3597955703735352
tp26
asS'Rigid Body 1'
p27
(lp28
(F-1.3919882774353027
F0.8043737411499023
F1.089038610458374
tp29
a(F-1.4993534088134766
F0.8034605383872986
F1.105698585510254
tp30
a(F-1.4586362838745117
F0.8100889325141907
F0.9700464010238647
tp31
a(F-1.4554855823516846
F0.8117221593856812
F1.0347824096679688
tp32
asS'all'
p33
(lp34
(F1.1508668661117554
F1.098239541053772
F0.10011222958564758
tp35
a(F0.9836692810058594
F0.9747974872589111
F0.5553705096244812
tp36
a(F0.9617363214492798
F1.2429890632629395
F0.42251861095428467
tp37
a(F2.0837559700012207
F0.8108670711517334
F-1.356943964958191
tp38
a(F2.064021348953247
F0.775361180305481
F-1.4162287712097168
tp39
a(F2.0967764854431152
F0.7524005174636841
F-1.3560435771942139
tp40
a(F2.1103646755218506
F0.676003634929657
F-1.3597955703735352
tp41
a(F1.2028629779815674
F1.1707812547683716
F-2.4108829498291016
tp42
a(F1.1671142578125
F1.102990746498108
F-2.4680120944976807
tp43
a(F1.227584719657898
F1.1144627332687378
F-2.4951395988464355
tp44
a(F1.255805492401123
F1.1461814641952515
F-2.470116138458252
tp45
a(F-1.3919882774353027
F0.8043737411499023
F1.089038610458374
tp46
a(F-1.4993534088134766
F0.8034605383872986
F1.105698585510254
tp47
a(F-1.4586362838745117
F0.8100889325141907
F0.9700464010238647
tp48
a(F-1.4554855823516846
F0.8117221593856812
F1.0347824096679688
tp49
a(F0.7005646228790283
F1.30610191822052
F0.21127642691135406
tp50
a(F0.7452319264411926
F1.345742106437683
F0.19363023340702057
tp51
a(F0.6927351951599121
F1.3684792518615723
F0.1546202003955841
tp52
a(F0.7623492479324341
F1.3931422233581543
F0.1581210494041443
tp53
as(lp54
(F-1.5580320358276367
F0.7697975039482117
F-5.9247002601623535
tp55
a(F-2.097177028656006
F0.7172902822494507
F-7.05446720123291
tp56
a(F-2.0079665184020996
F0.6975800395011902
F-2.8673620223999023
tp57
a(F-1.9092698097229004
F0.7800470590591431
F-5.991995811462402
tp58
a(F1.4045312404632568
F1.7037956714630127
F-1.0212669372558594
tp59
a(F0.03172743320465088
F1.7602312564849854
F-0.07592913508415222
tp60
a(F1.2290971279144287
F1.2361719608306885
F0.22623233497142792
tp61
a(F1.2361457347869873
F0.9588627815246582
F-0.22475993633270264
tp62
a(F0.7145347595214844
F0.39395761489868164
F-1.0934721231460571
tp63
a(F0.9404270648956299
F0.39781785011291504
F-1.0814738273620605
tp64
a(F-1.4595937728881836
F0.8187524676322937
F0.9783912301063538
tp65
a(F-1.9838695526123047
F0.7851677536964417
F-5.978883266448975
tp66
a(F2.208993673324585
F0.46271324157714844
F-1.8234848976135254
tp67
a(F0.7353849411010742
F0.40239417552948
F-0.7088409662246704
tp68
a(F-1.4548721313476562
F0.8047103881835938
F1.0425939559936523
tp69
a(F-1.9824037551879883
F0.7664761543273926
F-6.038006782531738
tp70
a(F-1.4683074951171875
F0.8100070953369141
F1.0401203632354736
tp71
a(F0.5608537197113037
F1.3548474311828613
F-1.123445987701416
tp72
a(F1.7006458044052124
F1.4126402139663696
F-1.97812020778656
tp73
a(F1.8954511880874634
F1.4348896741867065
F-0.6528183221817017
tp74
a(F0.5886954665184021
F1.8676178455352783
F1.982743501663208
tp75
a(F2.18868350982666
F0.703240692615509
F-5.834101676940918
tp76
a(F1.1050071716308594
F1.709010362625122
F0.6727056503295898
tp77
a(F1.8328825235366821
F0.4664900302886963
F0.1636168211698532
tp78
a(F0.45693880319595337
F1.9049005508422852
F-5.213727951049805
tp79
a(F2.064483642578125
F0.33701372146606445
F-0.7291401624679565
tp80
a(F-1.3621022701263428
F0.8626657724380493
F1.0144374370574951
tp81
a(F0.9361645579338074
F0.3961870074272156
F-1.0960649251937866
tp82
a(F0.703159511089325
F1.4095888137817383
F0.691341757774353
tp83
a(F1.917150855064392
F1.2910957336425781
F-0.3582115173339844
tp84
a(F1.6393687725067139
F1.1928465366363525
F-2.6176137924194336
tp85
a(F1.0718934535980225
F1.0725806951522827
F-0.09773026406764984
tp86
a(F0.8572024703025818
F0.45883989334106445
F-0.03061199188232422
tp87
a(F0.8183715343475342
F0.38693058490753174
F-0.7867164611816406
tp88
a(F1.1810050010681152
F0.5769555568695068
F-4.678175926208496
tp89
a(F2.118490219116211
F0.7530041337013245
F-1.4991334676742554
tp90
a(F0.6236426830291748
F0.8409388661384583
F-0.19022499024868011
tp91
a(F0.8388667106628418
F1.4001950025558472
F0.7852953672409058
tp92
a(F1.0824074745178223
F0.9389829039573669
F-2.3125052452087402
tp93
a(F0.9995145797729492
F0.27796995639801025
F-1.0385606288909912
tp94
a(F0.6793923377990723
F1.3048067092895508
F-3.79109525680542
tp95
a(F0.44782960414886475
F1.9007658958435059
F-5.189787864685059
tp96
a(F0.7006916403770447
F1.3054440021514893
F0.21186251938343048
tp97
a(F1.9513789415359497
F0.7734652757644653
F-2.2899820804595947
tp98
a(F1.465315818786621
F0.44152283668518066
F-0.7718932628631592
tp99
a(F1.2265374660491943
F0.6628925204277039
F-1.6898895502090454
tp100
a(F0.4444769024848938
F1.2313857078552246
F-0.4980117082595825
tp101
a(F2.2311973571777344
F0.10100460052490234
F0.49820274114608765
tp102
a(F0.5211751461029053
F1.2782268524169922
F-0.0666600912809372
tp103
a(F1.285364031791687
F1.4546093940734863
F0.13938722014427185
tp104
a(F2.094721555709839
F0.7767603993415833
F-1.9667415618896484
tp105
a(F1.2214984893798828
F0.44388020038604736
F-2.0058658123016357
tp106
a(F0.9681984186172485
F1.1903562545776367
F0.34676671028137207
tp107
a(F1.2215638160705566
F0.12587904930114746
F-1.2986390590667725
tp108
a(F2.10353422164917
F0.41467899084091187
F-0.8294956684112549
tp109
a(F1.1609431505203247
F1.1054767370224
F-0.4028153419494629
tp110
a(F0.5644908547401428
F1.3736542463302612
F0.5774950981140137
tp111
a(F1.947855830192566
F0.8415202498435974
F-1.8661891222000122
tp112
a(F1.6461279392242432
F1.1660261154174805
F-0.9365694522857666
tp113
a(F1.710597038269043
F0.6708526015281677
F-1.6497631072998047
tp114
a(F0.8938375115394592
F0.6500164270401001
F0.09541140496730804
tp115
a(F0.8183887004852295
F0.710488498210907
F0.09669041633605957
tp116
a(F0.9287050366401672
F1.3193142414093018
F1.1342183351516724
tp117
a(F0.7557684183120728
F1.3878039121627808
F0.1919163316488266
tp118
a(F0.47364628314971924
F1.8919615745544434
F-5.210638046264648
tp119
a(F-0.17846399545669556
F1.6403462886810303
F-2.6744942665100098
tp120
a(F0.7513339519500732
F1.2358264923095703
F-3.4085264205932617
tp121
a(F1.6795049905776978
F0.8240871429443359
F-1.764849066734314
tp122
a(F0.9987574815750122
F1.2710492610931396
F-2.446181535720825
tp123
a(F2.094025135040283
F-0.7127619981765747
F-3.7994351387023926
tp124
a(F1.2095792293548584
F1.2339588403701782
F-0.39100182056427
tp125
a(F0.5319210290908813
F0.6599559783935547
F-1.0379430055618286
tp126
a(F-0.42431890964508057
F2.086226463317871
F0.6888389587402344
tp127
a(F2.086948871612549
F0.27006852626800537
F-0.8829950094223022
tp128
a(F1.5948420763015747
F1.5976285934448242
F-0.5193372964859009
tp129
a(F1.2533388137817383
F1.4926505088806152
F0.147710919380188
tp130
a(F1.5628341436386108
F0.5413362979888916
F-0.2803577184677124
tp131
a(F1.255927324295044
F1.1464004516601562
F-2.469986915588379
tp132
a(F0.6131266355514526
F1.2922463417053223
F0.40587854385375977
tp133
a(F0.9490458965301514
F0.3377382755279541
F-0.9472544193267822
tp134
a(F0.8434510231018066
F1.0299556255340576
F0.21755357086658478
tp135
a(F1.1000921726226807
F1.7011277675628662
F0.754774808883667
tp136
a(F0.15515494346618652
F1.3731988668441772
F-2.640927791595459
tp137
a(F0.9466075897216797
F1.2381889820098877
F-2.414928913116455
tp138
a(F1.2856156826019287
F1.075756549835205
F-2.6516470909118652
tp139
a(F0.7437227964401245
F0.5478544235229492
F-1.6485563516616821
tp140
a(F0.9561110138893127
F1.1257009506225586
F0.215741366147995
tp141
a(F2.111577033996582
F0.40351128578186035
F-0.683976411819458
tp142
a(F1.0161532163619995
F0.9121682047843933
F-1.3456201553344727
tp143
a(F-0.29741859436035156
F1.422049641609192
F0.6945351958274841
tp144
a(F0.6345068216323853
F1.3726139068603516
F-1.839437484741211
tp145
a(F2.0972890853881836
F0.7539293766021729
F-1.3539514541625977
tp146
a(F1.071654200553894
F1.6367251873016357
F-3.8590118885040283
tp147
a(F1.0917630195617676
F0.8876650333404541
F-2.3349485397338867
tp148
a(F1.166372537612915
F1.1021252870559692
F-2.46866774559021
tp149
a(F0.7183921337127686
F0.5128923654556274
F-1.8213685750961304
tp150
a(F0.4793758988380432
F1.639007806777954
F-1.454737663269043
tp151
a(F1.48032546043396
F1.2975966930389404
F0.1852203607559204
tp152
a(F0.9745019674301147
F0.4903113842010498
F-0.6246755123138428
tp153
a(F1.0891473293304443
F1.6545021533966064
F0.7280488014221191
tp154
a(F0.7454389929771423
F0.8265557289123535
F0.08211016654968262
tp155
a(F0.6744145154953003
F0.4750022888183594
F-1.896260380744934
tp156
a(F1.3173813819885254
F1.0244348049163818
F-0.1010284423828125
tp157
a(F1.1628289222717285
F0.6993373036384583
F-1.6122102737426758
tp158
a(F0.7857125997543335
F0.7867879271507263
F0.10063716769218445
tp159
a(F0.8956931829452515
F1.032678484916687
F0.25455018877983093
tp160
a(F0.8081685304641724
F0.45396435260772705
F-1.854621410369873
tp161
a(F0.4497147798538208
F0.8901079893112183
F0.21782496571540833
tp162
a(F0.9037207365036011
F0.9993611574172974
F0.15914452075958252
tp163
a(F0.6656707525253296
F0.5927238464355469
F-0.04864718019962311
tp164
a(F0.7157955765724182
F1.3343682289123535
F0.10316860675811768
tp165
a(F0.821035623550415
F1.2996031045913696
F-1.927046775817871
tp166
a(F1.473186731338501
F1.5382665395736694
F0.016523070633411407
tp167
a(F1.2597873210906982
F0.7698164582252502
F-0.6610383987426758
tp168
a(F1.2619396448135376
F1.500049352645874
F0.13054627180099487
tp169
a(F0.9147800207138062
F1.2583770751953125
F-2.0512380599975586
tp170
a(F1.1144914627075195
F0.52118980884552
F-2.1881468296051025
tp171
a(F1.530202031135559
F0.7924372553825378
F-1.6018455028533936
tp172
a(F1.7721354961395264
F0.8994233012199402
F-1.0837242603302002
tp173
a(F1.4444583654403687
F1.047797679901123
F-1.0518690347671509
tp174
a(F1.5229344367980957
F1.1610963344573975
F-0.8187261819839478
tp175
a(F2.142937660217285
F0.732285737991333
F-0.9086664319038391
tp176
a(F0.7235054969787598
F0.5452158451080322
F-1.9721825122833252
tp177
a(F1.164440631866455
F1.1506415605545044
F-2.4840052127838135
tp178
a(F2.0613558292388916
F0.7750577330589294
F-1.4190772771835327
tp179
a(F0.7769489288330078
F0.48161983489990234
F-1.9197914600372314
tp180
a(F1.3175363540649414
F1.5813531875610352
F0.11495663970708847
tp181
a(F1.931675672531128
F0.7657581567764282
F-2.1452813148498535
tp182
a(F2.024623394012451
F0.636537492275238
F-1.3410115242004395
tp183
a(F0.7710467576980591
F1.3361618518829346
F0.16821898519992828
tp184
a(F1.9655704498291016
F0.4174128770828247
F-0.8079119920730591
tp185
a(F0.9723853468894958
F1.252119779586792
F0.43979883193969727
tp186
a(F1.1713273525238037
F1.1505974531173706
F-0.6167209148406982
tp187
a(F2.1199874877929688
F0.7478354573249817
F-1.395594835281372
tp188
a(lp189
g0
(coptirx
RigidBody
p190
g2
(I5
(F1.0320907831192017
F1.1053420305252075
F0.3593338429927826
tp191
(F0.7364031672477722
F-0.602896511554718
F0.30641043186187744
F-0.018409227952361107
tp192
(lp193
(F1.1508668661117554
F1.098239541053772
F0.10011222958564758
tp194
a(F0.9836692810058594
F0.9747974872589111
F0.5553705096244812
tp195
a(F0.9617363214492798
F1.2429890632629395
F0.42251861095428467
tp196
a(I1
I2
I3
tp197
(F0.0
F0.0
F0.0
tp198
F0.0
I00
tp199
tp200
Rp201
ag0
(g190
g2
(I2
(F2.0887296199798584
F0.7536581158638
F-1.3722529411315918
tp202
(F0.6096879839897156
F-0.6302033066749573
F-0.460051566362381
F-0.13955967128276825
tp203
(lp204
(F2.0837559700012207
F0.8108670711517334
F-1.356943964958191
tp205
a(F2.064021348953247
F0.775361180305481
F-1.4162287712097168
tp206
a(F2.0967764854431152
F0.7524005174636841
F-1.3560435771942139
tp207
a(F2.1103646755218506
F0.676003634929657
F-1.3597955703735352
tp208
a(I1
I2
I3
I4
tp209
(F0.0
F0.0
F0.0
F0.0
tp210
F0.0
I00
tp211
tp212
Rp213
ag0
(g190
g2
(I3
(F1.2133418321609497
F1.1336040496826172
F-2.4610376358032227
tp214
(F0.3982509672641754
F0.37415242195129395
F0.8353970050811768
F-0.0593135729432106
tp215
(lp216
(F1.2028629779815674
F1.1707812547683716
F-2.4108829498291016
tp217
a(F1.1671142578125
F1.102990746498108
F-2.4680120944976807
tp218
a(F1.227584719657898
F1.1144627332687378
F-2.4951395988464355
tp219
a(F1.255805492401123
F1.1461814641952515
F-2.470116138458252
tp220
a(I1
I2
I3
I4
tp221
(F0.0
F0.0
F0.0
F0.0
tp222
F0.0
I00
tp223
tp224
Rp225
ag0
(g190
g2
(I1
(F-1.4513881206512451
F0.807421088218689
F1.0496912002563477
tp226
(F-0.008704260922968388
F-0.9963287711143494
F-0.02632417157292366
F-0.08099590986967087
tp227
(lp228
(F-1.3919882774353027
F0.8043737411499023
F1.089038610458374
tp229
a(F-1.4993534088134766
F0.8034605383872986
F1.105698585510254
tp230
a(F-1.4586362838745117
F0.8100889325141907
F0.9700464010238647
tp231
a(F-1.4554855823516846
F0.8117221593856812
F1.0347824096679688
tp232
a(I1
I2
I3
I4
tp233
(F0.024000000208616257
F0.024000000208616257
F0.024000000208616257
F0.0
tp234
F0.001670708297751844
I01
tp235
tp236
Rp237
ag0
(g190
g2
(I4
(F0.725220263004303
F1.3533663749694824
F0.17941199243068695
tp238
(F0.7662295699119568
F0.3610975444316864
F-0.4790136516094208
F-0.2303185611963272
tp239
(lp240
(F0.7005646228790283
F1.30610191822052
F0.21127642691135406
tp241
a(F0.7452319264411926
F1.345742106437683
F0.19363023340702057
tp242
a(F0.6927351951599121
F1.3684792518615723
F0.1546202003955841
tp243
a(F0.7623492479324341
F1.3931422233581543
F0.1581210494041443
tp244
a(I1
I2
I3
I4
tp245
(F0.0
F0.0
F0.0
F0.0
tp246
F0.0
I00
tp247
tp248
Rp249
a(lp250
(lp251
g0
(coptirx
LabeledMarker
p252
g2
(I524289
(F0.0
F0.0
F0.0
tp253
F0.0
I01
I01
I00
tp254
tp255
Rp256
ag0
(g252
g2
(I524290
(F0.0
F0.0
F0.0
tp257
F0.0
I01
I01
I00
tp258
tp259
Rp260
ag0
(g252
g2
(I524291
(F0.0
F0.0
F0.0
tp261
F0.0
I01
I01
I00
tp262
tp263
Rp264
ag0
(g252
g2
(I131073
(F0.0
F0.0
F0.0
tp265
F0.0
I01
I01
I00
tp266
tp267
Rp268
ag0
(g252
g2
(I131074
(F0.0
F0.0
F0.0
tp269
F0.0
I01
I01
I00
tp270
tp271
Rp272
ag0
(g252
g2
(I131075
(F0.0
F0.0
F0.0
tp273
F0.0
I01
I01
I00
tp274
tp275
Rp276
ag0
(g252
g2
(I131076
(F0.0
F0.0
F0.0
tp277
F0.0
I01
I01
I00
tp278
tp279
Rp280
ag0
(g252
g2
(I262145
(F0.0
F0.0
F0.0
tp281
F0.0
I01
I01
I00
tp282
tp283
Rp284
ag0
(g252
g2
(I262146
(F0.0
F0.0
F0.0
tp285
F0.0
I01
I01
I00
tp286
tp287
Rp288
ag0
(g252
g2
(I262147
(F0.0
F0.0
F0.0
tp289
F0.0
I01
I01
I00
tp290
tp291
Rp292
ag0
(g252
g2
(I262148
(F0.0
F0.0
F0.0
tp293
F0.0
I01
I01
I00
tp294
tp295
Rp296
ag0
(g252
g2
(I327681
(F-1.3919882774353027
F0.8043737411499023
F1.089038610458374
tp297
F0.024000000208616257
I00
I01
I00
tp298
tp299
Rp300
ag0
(g252
g2
(I327682
(F-1.4993534088134766
F0.8034605383872986
F1.105698585510254
tp301
F0.024000000208616257
I00
I01
I00
tp302
tp303
Rp304
ag0
(g252
g2
(I327683
(F-1.4586362838745117
F0.8100889325141907
F0.9700464010238647
tp305
F0.024000000208616257
I00
I01
I00
tp306
tp307
Rp308
ag0
(g252
g2
(I327684
(F0.0
F0.0
F0.0
tp309
F0.0
I01
I01
I00
tp310
tp311
Rp312
ag0
(g252
g2
(I393217
(F0.0
F0.0
F0.0
tp313
F0.0
I01
I01
I00
tp314
tp315
Rp316
ag0
(g252
g2
(I393218
(F0.0
F0.0
F0.0
tp317
F0.0
I01
I01
I00
tp318
tp319
Rp320
ag0
(g252
g2
(I393219
(F0.0
F0.0
F0.0
tp321
F0.0
I01
I01
I00
tp322
tp323
Rp324
ag0
(g252
g2
(I393220
(F0.0
F0.0
F0.0
tp325
F0.0
I01
I01
I00
tp326
tp327
Rp328
aF512.260009765625
(I0
I0
tp329
F512.26
I00
I00
tp330
tp331
Rp332
.